target datalayout = "e-m:e-p270:32:32-p271:32:32-p272:64:64-i64:64-i128:128-f80:128-n8:16:32:64-S128"
target triple = "x86_64-pc-linux-gnu"

%struct.AVFilterContext = type { ptr, ptr, ptr, ptr, ptr, i32, ptr, ptr, i32, ptr, ptr, i32, i32, ptr, ptr, ptr, ptr, i32, ptr, i32, i32 }
%struct.NoiseContext = type { ptr, i32, [4 x i32], [4 x i32], %struct.FilterParams, [4 x %struct.FilterParams], ptr, ptr }
%struct.FilterParams = type { i32, i32, %struct.AVLFG, i32, ptr, [4096 x [3 x ptr]], [4096 x i32], i32 }
%struct.AVLFG = type { [64 x i32], i32 }

; Function Attrs: cold nounwind optsize uwtable
define internal void @uninit(ptr noundef %0) #3 {
  %2 = alloca ptr, align 8
  %3 = alloca ptr, align 8
  %4 = alloca i32, align 4
  store ptr %0, ptr %2, align 8, !tbaa !18
  call void @llvm.lifetime.start.p0(i64 8, ptr %3) #9
  %5 = load ptr, ptr %2, align 8, !tbaa !18
  %6 = getelementptr inbounds nuw %struct.AVFilterContext, ptr %5, i32 0, i32 9
  %7 = load ptr, ptr %6, align 8, !tbaa !20
  store ptr %7, ptr %3, align 8, !tbaa !30
  call void @llvm.lifetime.start.p0(i64 4, ptr %4) #9
  store i32 0, ptr %4, align 4, !tbaa !9
  br label %8

8:                                                ; preds = %18, %1
  %9 = load i32, ptr %4, align 4, !tbaa !9
  %10 = icmp slt i32 %9, 4
  br i1 %10, label %11, label %21

11:                                               ; preds = %8
  %12 = load ptr, ptr %3, align 8, !tbaa !30
  %13 = getelementptr inbounds nuw %struct.NoiseContext, ptr %12, i32 0, i32 5
  %14 = load i32, ptr %4, align 4, !tbaa !9
  %15 = sext i32 %14 to i64
  %16 = getelementptr inbounds [4 x %struct.FilterParams], ptr %13, i64 0, i64 %15
  %17 = getelementptr inbounds nuw %struct.FilterParams, ptr %16, i32 0, i32 4
  call void @av_freep(ptr noundef %17)
  br label %18

18:                                               ; preds = %11
  %19 = load i32, ptr %4, align 4, !tbaa !9
  %20 = add nsw i32 %19, 1
  store i32 %20, ptr %4, align 4, !tbaa !9
  br label %8, !llvm.loop !45

21:                                               ; preds = %8
  call void @llvm.lifetime.end.p0(i64 4, ptr %4) #9
  call void @llvm.lifetime.end.p0(i64 8, ptr %3) #9
  ret void
}