; Function Attrs: cold nounwind optsize uwtable
define internal void @uninit(ptr noundef readonly captures(none) %0) #3 {
  %2 = getelementptr inbounds nuw i8, ptr %0, i64 72
  %3 = load ptr, ptr %2, align 8, !tbaa !13
  %invariant.gep = getelementptr inbounds nuw i8, ptr %3, i64 115296
  br label %4

4:                                                ; preds = %1, %4
  %indvars.iv = phi i64 [ 0, %1 ], [ %indvars.iv.next, %4 ]
  %5 = mul nuw nsw i64 %indvars.iv, 114976
  %gep = getelementptr inbounds nuw i8, ptr %invariant.gep, i64 %5
  tail call void @av_freep(ptr noundef nonnull %gep) #10
  %indvars.iv.next = add nuw nsw i64 %indvars.iv, 1
  %exitcond.not = icmp eq i64 %indvars.iv.next, 4
  br i1 %exitcond.not, label %6, label %4, !llvm.loop !38

6:                                                ; preds = %4
  ret void
}